target datalayout = "e-m:e-p270:32:32-p271:32:32-p272:64:64-i64:64-i128:128-f80:128-n8:16:32:64-S128"
target triple = "x86_64-pc-linux-gnu"

%"class.icu_77::UnicodeString" = type { %"class.icu_77::Replaceable", %"union.icu_77::UnicodeString::StackBufferOrFields" }
%"class.icu_77::Replaceable" = type { %"class.icu_77::UObject" }
%"class.icu_77::UObject" = type { ptr }
%"union.icu_77::UnicodeString::StackBufferOrFields" = type { %struct.anon.0, [32 x i8] }
%struct.anon.0 = type { i16, i32, i32, ptr }
%"class.icu_77::RuleBasedNumberFormat" = type { %"class.icu_77::NumberFormat.base", ptr, ptr, i32, ptr, %"class.icu_77::Locale", ptr, ptr, ptr, ptr, i32, i8, ptr, ptr, %"class.icu_77::UnicodeString", i8, i8, i8, ptr }
%"class.icu_77::NumberFormat.base" = type <{ %"class.icu_77::Format", i8, [3 x i8], i32, i32, i32, i32, i8, i8, [4 x i16], [2 x i8], i32 }>
%"class.icu_77::Format" = type { %"class.icu_77::UObject", ptr, ptr }
%"class.icu_77::Locale" = type <{ %"class.icu_77::UObject", [12 x i8], [6 x i8], [4 x i8], [2 x i8], i32, [4 x i8], ptr, [157 x i8], [3 x i8], ptr, i8, [7 x i8] }>
%struct.anon = type { i16, [27 x i16] }
%"class.icu_77::NFRuleSet" = type <{ [8 x i8], %"class.icu_77::UnicodeString", %"class.icu_77::NFRuleList", [6 x ptr], ptr, %"class.icu_77::NFRuleList", i8, i8, i8, [5 x i8] }>
%"class.icu_77::NFRuleList" = type { ptr, i32, i32 }

@_ZL15gPercentPercent = internal constant [3 x i16] [i16 37, i16 37, i16 0], align 2

; Function Attrs: inlinehint mustprogress nounwind uwtable
define linkonce_odr noundef ptr @_ZNK6icu_7713UnicodeString13getArrayStartEv(ptr noundef nonnull align 8 dereferenceable(64) %0) #4 comdat align 2 {
  %2 = alloca ptr, align 8
  store ptr %0, ptr %2, align 8, !tbaa !76
  %3 = load ptr, ptr %2, align 8
  %4 = getelementptr inbounds nuw %"class.icu_77::UnicodeString", ptr %3, i32 0, i32 1
  %5 = getelementptr inbounds nuw %struct.anon.0, ptr %4, i32 0, i32 0
  %6 = load i16, ptr %5, align 8, !tbaa !39
  %7 = sext i16 %6 to i32
  %8 = and i32 %7, 2
  %9 = icmp ne i32 %8, 0
  br i1 %9, label %10, label %14

10:                                               ; preds = %1
  %11 = getelementptr inbounds nuw %"class.icu_77::UnicodeString", ptr %3, i32 0, i32 1
  %12 = getelementptr inbounds nuw %struct.anon, ptr %11, i32 0, i32 1
  %13 = getelementptr inbounds [27 x i16], ptr %12, i64 0, i64 0
  br label %18

14:                                               ; preds = %1
  %15 = getelementptr inbounds nuw %"class.icu_77::UnicodeString", ptr %3, i32 0, i32 1
  %16 = getelementptr inbounds nuw %struct.anon.0, ptr %15, i32 0, i32 3
  %17 = load ptr, ptr %16, align 8, !tbaa !39
  br label %18

18:                                               ; preds = %14, %10
  %19 = phi ptr [ %13, %10 ], [ %17, %14 ]
  ret ptr %19
}

; Function Attrs: inlinehint mustprogress uwtable
define linkonce_odr noundef signext i8 @_ZNK6icu_7713UnicodeString8doEqualsERKS0_i(ptr noundef nonnull align 8 dereferenceable(64) %0, ptr noundef nonnull align 8 dereferenceable(64) %1, i32 noundef %2) #6 comdat align 2 {
  %4 = alloca ptr, align 8
  %5 = alloca ptr, align 8
  %6 = alloca i32, align 4
  store ptr %0, ptr %4, align 8, !tbaa !76
  store ptr %1, ptr %5, align 8, !tbaa !76
  store i32 %2, ptr %6, align 4, !tbaa !12
  %7 = load ptr, ptr %4, align 8
  %8 = load ptr, ptr %5, align 8, !tbaa !76
  %9 = call noundef ptr @_ZNK6icu_7713UnicodeString13getArrayStartEv(ptr noundef nonnull align 8 dereferenceable(64) %8)
  %10 = load i32, ptr %6, align 4, !tbaa !12
  %11 = call noundef signext i8 @_ZNK6icu_7713UnicodeString8doEqualsEPKDsi(ptr noundef nonnull align 8 dereferenceable(64) %7, ptr noundef %9, i32 noundef %10)
  ret i8 %11
}

; Function Attrs: inlinehint mustprogress nounwind uwtable
define linkonce_odr noundef signext i8 @_ZNK6icu_7713UnicodeString7isBogusEv(ptr noundef nonnull align 8 dereferenceable(64) %0) #4 comdat align 2 {
  %2 = alloca ptr, align 8
  store ptr %0, ptr %2, align 8, !tbaa !76
  %3 = load ptr, ptr %2, align 8
  %4 = getelementptr inbounds nuw %"class.icu_77::UnicodeString", ptr %3, i32 0, i32 1
  %5 = getelementptr inbounds nuw %struct.anon.0, ptr %4, i32 0, i32 0
  %6 = load i16, ptr %5, align 8, !tbaa !39
  %7 = sext i16 %6 to i32
  %8 = and i32 %7, 1
  %9 = trunc i32 %8 to i8
  ret i8 %9
}

; Function Attrs: inlinehint mustprogress uwtable
define linkonce_odr noundef zeroext i1 @_ZNK6icu_7713UnicodeStringeqERKS0_(ptr noundef nonnull align 8 dereferenceable(64) %0, ptr noundef nonnull align 8 dereferenceable(64) %1) #6 comdat align 2 {
  %3 = alloca i1, align 1
  %4 = alloca ptr, align 8
  %5 = alloca ptr, align 8
  %6 = alloca i32, align 4
  %7 = alloca i32, align 4
  store ptr %0, ptr %4, align 8, !tbaa !76
  store ptr %1, ptr %5, align 8, !tbaa !76
  %8 = load ptr, ptr %4, align 8
  %9 = call noundef signext i8 @_ZNK6icu_7713UnicodeString7isBogusEv(ptr noundef nonnull align 8 dereferenceable(64) %8)
  %10 = icmp ne i8 %9, 0
  br i1 %10, label %11, label %15

11:                                               ; preds = %2
  %12 = load ptr, ptr %5, align 8, !tbaa !76
  %13 = call noundef signext i8 @_ZNK6icu_7713UnicodeString7isBogusEv(ptr noundef nonnull align 8 dereferenceable(64) %12)
  %14 = icmp ne i8 %13, 0
  store i1 %14, ptr %3, align 1
  br label %33

15:                                               ; preds = %2
  call void @llvm.lifetime.start.p0(i64 4, ptr %6) #14
  %16 = call noundef i32 @_ZNK6icu_7713UnicodeString6lengthEv(ptr noundef nonnull align 8 dereferenceable(64) %8)
  store i32 %16, ptr %6, align 4, !tbaa !12
  call void @llvm.lifetime.start.p0(i64 4, ptr %7) #14
  %17 = load ptr, ptr %5, align 8, !tbaa !76
  %18 = call noundef i32 @_ZNK6icu_7713UnicodeString6lengthEv(ptr noundef nonnull align 8 dereferenceable(64) %17)
  store i32 %18, ptr %7, align 4, !tbaa !12
  %19 = load ptr, ptr %5, align 8, !tbaa !76
  %20 = call noundef signext i8 @_ZNK6icu_7713UnicodeString7isBogusEv(ptr noundef nonnull align 8 dereferenceable(64) %19)
  %21 = icmp ne i8 %20, 0
  br i1 %21, label %31, label %22

22:                                               ; preds = %15
  %23 = load i32, ptr %6, align 4, !tbaa !12
  %24 = load i32, ptr %7, align 4, !tbaa !12
  %25 = icmp eq i32 %23, %24
  br i1 %25, label %26, label %31

26:                                               ; preds = %22
  %27 = load ptr, ptr %5, align 8, !tbaa !76
  %28 = load i32, ptr %6, align 4, !tbaa !12
  %29 = call noundef signext i8 @_ZNK6icu_7713UnicodeString8doEqualsERKS0_i(ptr noundef nonnull align 8 dereferenceable(64) %8, ptr noundef nonnull align 8 dereferenceable(64) %27, i32 noundef %28)
  %30 = icmp ne i8 %29, 0
  br label %31

31:                                               ; preds = %26, %22, %15
  %32 = phi i1 [ false, %22 ], [ false, %15 ], [ %30, %26 ]
  store i1 %32, ptr %3, align 1
  call void @llvm.lifetime.end.p0(i64 4, ptr %7) #14
  call void @llvm.lifetime.end.p0(i64 4, ptr %6) #14
  br label %33

33:                                               ; preds = %31, %11
  %34 = load i1, ptr %3, align 1
  ret i1 %34
}

; Function Attrs: inlinehint mustprogress nounwind uwtable
define linkonce_odr noundef i32 @_ZNK6icu_7713UnicodeString14getShortLengthEv(ptr noundef nonnull align 8 dereferenceable(64) %0) #4 comdat align 2 {
  %2 = alloca ptr, align 8
  store ptr %0, ptr %2, align 8, !tbaa !76
  %3 = load ptr, ptr %2, align 8
  %4 = getelementptr inbounds nuw %"class.icu_77::UnicodeString", ptr %3, i32 0, i32 1
  %5 = getelementptr inbounds nuw %struct.anon.0, ptr %4, i32 0, i32 0
  %6 = load i16, ptr %5, align 8, !tbaa !39
  %7 = sext i16 %6 to i32
  %8 = ashr i32 %7, 5
  ret i32 %8
}

; Function Attrs: inlinehint mustprogress nounwind uwtable
define linkonce_odr noundef signext i8 @_ZNK6icu_7713UnicodeString14hasShortLengthEv(ptr noundef nonnull align 8 dereferenceable(64) %0) #4 comdat align 2 {
  %2 = alloca ptr, align 8
  store ptr %0, ptr %2, align 8, !tbaa !76
  %3 = load ptr, ptr %2, align 8
  %4 = getelementptr inbounds nuw %"class.icu_77::UnicodeString", ptr %3, i32 0, i32 1
  %5 = getelementptr inbounds nuw %struct.anon.0, ptr %4, i32 0, i32 0
  %6 = load i16, ptr %5, align 8, !tbaa !39
  %7 = sext i16 %6 to i32
  %8 = icmp sge i32 %7, 0
  %9 = zext i1 %8 to i8
  ret i8 %9
}

; Function Attrs: mustprogress uwtable
define linkonce_odr noundef signext i8 @_ZNK6icu_779NFRuleSet7isNamedERKNS_13UnicodeStringE(ptr noundef nonnull align 8 dereferenceable(163) %0, ptr noundef nonnull align 8 dereferenceable(64) %1) #2 comdat align 2 {
  %3 = alloca ptr, align 8
  %4 = alloca ptr, align 8
  store ptr %0, ptr %3, align 8, !tbaa !121
  store ptr %1, ptr %4, align 8, !tbaa !76
  %5 = load ptr, ptr %3, align 8
  %6 = getelementptr inbounds nuw %"class.icu_77::NFRuleSet", ptr %5, i32 0, i32 1
  %7 = load ptr, ptr %4, align 8, !tbaa !76
  %8 = call noundef zeroext i1 @_ZNK6icu_7713UnicodeStringeqERKS0_(ptr noundef nonnull align 8 dereferenceable(64) %6, ptr noundef nonnull align 8 dereferenceable(64) %7)
  %9 = zext i1 %8 to i8
  ret i8 %9
}

; Function Attrs: inlinehint mustprogress uwtable
define linkonce_odr noundef i32 @_ZNK6icu_7713UnicodeString6lengthEv(ptr noundef nonnull align 8 dereferenceable(64) %0) #6 comdat align 2 {
  %2 = alloca ptr, align 8
  store ptr %0, ptr %2, align 8, !tbaa !76
  %3 = load ptr, ptr %2, align 8
  %4 = call noundef signext i8 @_ZNK6icu_7713UnicodeString14hasShortLengthEv(ptr noundef nonnull align 8 dereferenceable(64) %3)
  %5 = icmp ne i8 %4, 0
  br i1 %5, label %6, label %8

6:                                                ; preds = %1
  %7 = call noundef i32 @_ZNK6icu_7713UnicodeString14getShortLengthEv(ptr noundef nonnull align 8 dereferenceable(64) %3)
  br label %12

8:                                                ; preds = %1
  %9 = getelementptr inbounds nuw %"class.icu_77::UnicodeString", ptr %3, i32 0, i32 1
  %10 = getelementptr inbounds nuw %struct.anon.0, ptr %9, i32 0, i32 1
  %11 = load i32, ptr %10, align 4, !tbaa !39
  br label %12

12:                                               ; preds = %8, %6
  %13 = phi i32 [ %7, %6 ], [ %11, %8 ]
  ret i32 %13
}

; Function Attrs: inlinehint mustprogress uwtable
define linkonce_odr void @_ZNK6icu_7713UnicodeString8pinIndexERi(ptr noundef nonnull align 8 dereferenceable(64) %0, ptr noundef nonnull align 4 dereferenceable(4) %1) #6 comdat align 2 {
  %3 = alloca ptr, align 8
  %4 = alloca ptr, align 8
  store ptr %0, ptr %3, align 8, !tbaa !76
  store ptr %1, ptr %4, align 8, !tbaa !59
  %5 = load ptr, ptr %3, align 8
  %6 = load ptr, ptr %4, align 8, !tbaa !59
  %7 = load i32, ptr %6, align 4, !tbaa !12
  %8 = icmp slt i32 %7, 0
  br i1 %8, label %9, label %11

9:                                                ; preds = %2
  %10 = load ptr, ptr %4, align 8, !tbaa !59
  store i32 0, ptr %10, align 4, !tbaa !12
  br label %20

11:                                               ; preds = %2
  %12 = load ptr, ptr %4, align 8, !tbaa !59
  %13 = load i32, ptr %12, align 4, !tbaa !12
  %14 = call noundef i32 @_ZNK6icu_7713UnicodeString6lengthEv(ptr noundef nonnull align 8 dereferenceable(64) %5)
  %15 = icmp sgt i32 %13, %14
  br i1 %15, label %16, label %19

16:                                               ; preds = %11
  %17 = call noundef i32 @_ZNK6icu_7713UnicodeString6lengthEv(ptr noundef nonnull align 8 dereferenceable(64) %5)
  %18 = load ptr, ptr %4, align 8, !tbaa !59
  store i32 %17, ptr %18, align 4, !tbaa !12
  br label %19

19:                                               ; preds = %16, %11
  br label %20

20:                                               ; preds = %19, %9
  ret void
}

; Function Attrs: mustprogress uwtable
define noundef ptr @_ZNK6icu_7721RuleBasedNumberFormat11findRuleSetERKNS_13UnicodeStringER10UErrorCode(ptr noundef nonnull align 8 dereferenceable(456) %0, ptr noundef nonnull align 8 dereferenceable(64) %1, ptr noundef nonnull align 4 dereferenceable(4) %2) #2 align 2 {
  %4 = alloca ptr, align 8
  %5 = alloca ptr, align 8
  %6 = alloca ptr, align 8
  %7 = alloca ptr, align 8
  %8 = alloca ptr, align 8
  %9 = alloca i32, align 4
  %10 = alloca ptr, align 8
  store ptr %0, ptr %5, align 8, !tbaa !3
  store ptr %1, ptr %6, align 8, !tbaa !76
  store ptr %2, ptr %7, align 8, !tbaa !51
  %11 = load ptr, ptr %5, align 8
  %12 = load ptr, ptr %7, align 8, !tbaa !51
  %13 = load i32, ptr %12, align 4, !tbaa !28
  %14 = call noundef signext i8 @_ZL9U_SUCCESS10UErrorCode(i32 noundef %13)
  %15 = icmp ne i8 %14, 0
  br i1 %15, label %16, label %48

16:                                               ; preds = %3
  %17 = getelementptr inbounds nuw %"class.icu_77::RuleBasedNumberFormat", ptr %11, i32 0, i32 1
  %18 = load ptr, ptr %17, align 8, !tbaa !87
  %19 = icmp ne ptr %18, null
  br i1 %19, label %20, label %48

20:                                               ; preds = %16
  call void @llvm.lifetime.start.p0(i64 8, ptr %8) #14
  %21 = getelementptr inbounds nuw %"class.icu_77::RuleBasedNumberFormat", ptr %11, i32 0, i32 1
  %22 = load ptr, ptr %21, align 8, !tbaa !87
  store ptr %22, ptr %8, align 8, !tbaa !134
  br label %23

23:                                               ; preds = %41, %20
  %24 = load ptr, ptr %8, align 8, !tbaa !134
  %25 = load ptr, ptr %24, align 8, !tbaa !121
  %26 = icmp ne ptr %25, null
  br i1 %26, label %28, label %27

27:                                               ; preds = %23
  store i32 2, ptr %9, align 4
  br label %44

28:                                               ; preds = %23
  call void @llvm.lifetime.start.p0(i64 8, ptr %10) #14
  %29 = load ptr, ptr %8, align 8, !tbaa !134
  %30 = load ptr, ptr %29, align 8, !tbaa !121
  store ptr %30, ptr %10, align 8, !tbaa !121
  %31 = load ptr, ptr %10, align 8, !tbaa !121
  %32 = load ptr, ptr %6, align 8, !tbaa !76
  %33 = call noundef signext i8 @_ZNK6icu_779NFRuleSet7isNamedERKNS_13UnicodeStringE(ptr noundef nonnull align 8 dereferenceable(163) %31, ptr noundef nonnull align 8 dereferenceable(64) %32)
  %34 = icmp ne i8 %33, 0
  br i1 %34, label %35, label %37

35:                                               ; preds = %28
  %36 = load ptr, ptr %10, align 8, !tbaa !121
  store ptr %36, ptr %4, align 8
  store i32 1, ptr %9, align 4
  br label %38

37:                                               ; preds = %28
  store i32 0, ptr %9, align 4
  br label %38

38:                                               ; preds = %37, %35
  call void @llvm.lifetime.end.p0(i64 8, ptr %10) #14
  %39 = load i32, ptr %9, align 4
  switch i32 %39, label %44 [
    i32 0, label %40
  ]

40:                                               ; preds = %38
  br label %41

41:                                               ; preds = %40
  %42 = load ptr, ptr %8, align 8, !tbaa !134
  %43 = getelementptr inbounds nuw ptr, ptr %42, i32 1
  store ptr %43, ptr %8, align 8, !tbaa !134
  br label %23, !llvm.loop !159

44:                                               ; preds = %38, %27
  call void @llvm.lifetime.end.p0(i64 8, ptr %8) #14
  %45 = load i32, ptr %9, align 4
  switch i32 %45, label %51 [
    i32 2, label %46
    i32 1, label %49
  ]

46:                                               ; preds = %44
  %47 = load ptr, ptr %7, align 8, !tbaa !51
  store i32 1, ptr %47, align 4, !tbaa !28
  br label %48

48:                                               ; preds = %46, %16, %3
  store ptr null, ptr %4, align 8
  br label %49

49:                                               ; preds = %48, %44
  %50 = load ptr, ptr %4, align 8
  ret ptr %50

51:                                               ; preds = %44
  unreachable
}

; Function Attrs: inlinehint mustprogress uwtable
define linkonce_odr noundef i32 @_ZNK6icu_7713UnicodeString7indexOfEPKDsii(ptr noundef nonnull align 8 dereferenceable(64) %0, ptr noundef %1, i32 noundef %2, i32 noundef %3) #6 comdat align 2 {
  %5 = alloca ptr, align 8
  %6 = alloca ptr, align 8
  %7 = alloca i32, align 4
  %8 = alloca i32, align 4
  store ptr %0, ptr %5, align 8, !tbaa !76
  store ptr %1, ptr %6, align 8, !tbaa !16
  store i32 %2, ptr %7, align 4, !tbaa !12
  store i32 %3, ptr %8, align 4, !tbaa !12
  %9 = load ptr, ptr %5, align 8
  call void @_ZNK6icu_7713UnicodeString8pinIndexERi(ptr noundef nonnull align 8 dereferenceable(64) %9, ptr noundef nonnull align 4 dereferenceable(4) %8)
  %10 = load ptr, ptr %6, align 8, !tbaa !16
  %11 = load i32, ptr %7, align 4, !tbaa !12
  %12 = load i32, ptr %8, align 4, !tbaa !12
  %13 = call noundef i32 @_ZNK6icu_7713UnicodeString6lengthEv(ptr noundef nonnull align 8 dereferenceable(64) %9)
  %14 = load i32, ptr %8, align 4, !tbaa !12
  %15 = sub nsw i32 %13, %14
  %16 = call noundef i32 @_ZNK6icu_7713UnicodeString7indexOfEPKDsiiii(ptr noundef nonnull align 8 dereferenceable(64) %9, ptr noundef %10, i32 noundef 0, i32 noundef %11, i32 noundef %12, i32 noundef %15)
  ret i32 %16
}

; Function Attrs: inlinehint mustprogress nounwind uwtable
define internal noundef signext i8 @_ZL9U_SUCCESS10UErrorCode(i32 noundef %0) #4 {
  %2 = alloca i32, align 4
  store i32 %0, ptr %2, align 4, !tbaa !28
  %3 = load i32, ptr %2, align 4, !tbaa !28
  %4 = icmp sle i32 %3, 0
  %5 = zext i1 %4 to i8
  ret i8 %5
}

; Function Attrs: mustprogress uwtable
define noundef nonnull align 8 dereferenceable(64) ptr @_ZNK6icu_7721RuleBasedNumberFormat6formatEdRKNS_13UnicodeStringERS1_RNS_13FieldPositionER10UErrorCode(ptr noundef nonnull align 8 dereferenceable(456) %0, double noundef %1, ptr noundef nonnull align 8 dereferenceable(64) %2, ptr noundef nonnull align 8 dereferenceable(64) %3, ptr noundef nonnull align 8 dereferenceable(20) %4, ptr noundef nonnull align 4 dereferenceable(4) %5) unnamed_addr #2 align 2 {
  %7 = alloca ptr, align 8
  %8 = alloca double, align 8
  %9 = alloca ptr, align 8
  %10 = alloca ptr, align 8
  %11 = alloca ptr, align 8
  %12 = alloca ptr, align 8
  %13 = alloca ptr, align 8
  store ptr %0, ptr %7, align 8, !tbaa !3
  store double %1, ptr %8, align 8, !tbaa !178
  store ptr %2, ptr %9, align 8, !tbaa !76
  store ptr %3, ptr %10, align 8, !tbaa !76
  store ptr %4, ptr %11, align 8, !tbaa !162
  store ptr %5, ptr %12, align 8, !tbaa !51
  %14 = load ptr, ptr %7, align 8
  %15 = load ptr, ptr %12, align 8, !tbaa !51
  %16 = load i32, ptr %15, align 4, !tbaa !28
  %17 = call noundef signext i8 @_ZL9U_SUCCESS10UErrorCode(i32 noundef %16)
  %18 = icmp ne i8 %17, 0
  br i1 %18, label %19, label %38

19:                                               ; preds = %6
  %20 = load ptr, ptr %9, align 8, !tbaa !76
  %21 = call noundef i32 @_ZNK6icu_7713UnicodeString7indexOfEPKDsii(ptr noundef nonnull align 8 dereferenceable(64) %20, ptr noundef @_ZL15gPercentPercent, i32 noundef 2, i32 noundef 0)
  %22 = icmp eq i32 %21, 0
  br i1 %22, label %23, label %25

23:                                               ; preds = %19
  %24 = load ptr, ptr %12, align 8, !tbaa !51
  store i32 1, ptr %24, align 4, !tbaa !28
  br label %37

25:                                               ; preds = %19
  call void @llvm.lifetime.start.p0(i64 8, ptr %13) #14
  %26 = load ptr, ptr %9, align 8, !tbaa !76
  %27 = load ptr, ptr %12, align 8, !tbaa !51
  %28 = call noundef ptr @_ZNK6icu_7721RuleBasedNumberFormat11findRuleSetERKNS_13UnicodeStringER10UErrorCode(ptr noundef nonnull align 8 dereferenceable(456) %14, ptr noundef nonnull align 8 dereferenceable(64) %26, ptr noundef nonnull align 4 dereferenceable(4) %27)
  store ptr %28, ptr %13, align 8, !tbaa !121
  %29 = load ptr, ptr %13, align 8, !tbaa !121
  %30 = icmp ne ptr %29, null
  br i1 %30, label %31, label %36

31:                                               ; preds = %25
  %32 = load double, ptr %8, align 8, !tbaa !178
  %33 = load ptr, ptr %13, align 8, !tbaa !121
  %34 = load ptr, ptr %10, align 8, !tbaa !76
  %35 = load ptr, ptr %12, align 8, !tbaa !51
  call void @_ZNK6icu_7721RuleBasedNumberFormat6formatEdRNS_9NFRuleSetERNS_13UnicodeStringER10UErrorCode(ptr noundef nonnull align 8 dereferenceable(456) %14, double noundef %32, ptr noundef nonnull align 8 dereferenceable(163) %33, ptr noundef nonnull align 8 dereferenceable(64) %34, ptr noundef nonnull align 4 dereferenceable(4) %35)
  br label %36

36:                                               ; preds = %31, %25
  call void @llvm.lifetime.end.p0(i64 8, ptr %13) #14
  br label %37

37:                                               ; preds = %36, %23
  br label %38

38:                                               ; preds = %37, %6
  %39 = load ptr, ptr %10, align 8, !tbaa !76
  ret ptr %39
}