; Function Attrs: mustprogress uwtable
define noundef nonnull align 8 dereferenceable(64) ptr @_ZNK6icu_7721RuleBasedNumberFormat6formatEdRKNS_13UnicodeStringERS1_RNS_13FieldPositionER10UErrorCode(ptr noundef nonnull align 8 dereferenceable(456) %0, double noundef %1, ptr noundef nonnull align 8 dereferenceable(64) %2, ptr noundef nonnull returned align 8 dereferenceable(64) %3, ptr nonnull readnone align 8 captures(none) %4, ptr noundef nonnull align 4 dereferenceable(4) %5) unnamed_addr #3 align 2 {
  %7 = load i32, ptr %5, align 4, !tbaa !19
  %8 = icmp sgt i32 %7, 0
  br i1 %8, label %_ZNK6icu_7721RuleBasedNumberFormat11findRuleSetERKNS_13UnicodeStringER10UErrorCode.exit.thread, label %9

9:                                                ; preds = %6
  %.phi.trans.insert.i = getelementptr inbounds nuw i8, ptr %2, i64 8
  %.pre.i = load i16, ptr %.phi.trans.insert.i, align 8, !tbaa !55
  %10 = icmp slt i16 %.pre.i, 0
  %11 = ashr i16 %.pre.i, 5
  %12 = sext i16 %11 to i32
  %13 = getelementptr inbounds nuw i8, ptr %2, i64 12
  %14 = load i32, ptr %13, align 4
  %15 = select i1 %10, i32 %14, i32 %12
  %spec.select.i = tail call i32 @llvm.smin.i32(i32 %15, i32 0)
  %16 = sub nsw i32 %15, %spec.select.i
  %17 = tail call noundef i32 @_ZNK6icu_7713UnicodeString7indexOfEPKDsiiii(ptr noundef nonnull align 8 dereferenceable(64) %2, ptr noundef nonnull @.str.7, i32 noundef 0, i32 noundef 2, i32 noundef %spec.select.i, i32 noundef %16)
  %18 = icmp eq i32 %17, 0
  br i1 %18, label %19, label %20

19:                                               ; preds = %9
  store i32 1, ptr %5, align 4, !tbaa !19
  br label %_ZNK6icu_7721RuleBasedNumberFormat11findRuleSetERKNS_13UnicodeStringER10UErrorCode.exit.thread

20:                                               ; preds = %9
  %21 = load i32, ptr %5, align 4, !tbaa !19
  %22 = icmp sgt i32 %21, 0
  %23 = getelementptr inbounds nuw i8, ptr %0, i64 64
  %24 = load ptr, ptr %23, align 8
  %.not16.i = icmp eq ptr %24, null
  %or.cond.i = select i1 %22, i1 true, i1 %.not16.i
  br i1 %or.cond.i, label %_ZNK6icu_7721RuleBasedNumberFormat11findRuleSetERKNS_13UnicodeStringER10UErrorCode.exit.thread, label %.preheader.i

.preheader.i:                                     ; preds = %20
  %25 = load ptr, ptr %24, align 8, !tbaa !96
  %.not1729.i = icmp eq ptr %25, null
  br i1 %.not1729.i, label %._crit_edge.i, label %.lr.ph.i

.lr.ph.i:                                         ; preds = %.preheader.i
  %26 = getelementptr inbounds nuw i8, ptr %2, i64 10
  %27 = getelementptr inbounds nuw i8, ptr %2, i64 24
  br label %28

28:                                               ; preds = %_ZNK6icu_779NFRuleSet7isNamedERKNS_13UnicodeStringE.exit.thread.i, %.lr.ph.i
  %29 = phi ptr [ %25, %.lr.ph.i ], [ %57, %_ZNK6icu_779NFRuleSet7isNamedERKNS_13UnicodeStringE.exit.thread.i ]
  %.01330.i = phi ptr [ %24, %.lr.ph.i ], [ %56, %_ZNK6icu_779NFRuleSet7isNamedERKNS_13UnicodeStringE.exit.thread.i ]
  %30 = getelementptr inbounds nuw i8, ptr %29, i64 8
  %31 = getelementptr inbounds nuw i8, ptr %29, i64 16
  %32 = load i16, ptr %31, align 8, !tbaa !55
  %33 = and i16 %32, 1
  %.not.i.i.i = icmp eq i16 %33, 0
  br i1 %.not.i.i.i, label %37, label %34

34:                                               ; preds = %28
  %35 = load i16, ptr %.phi.trans.insert.i, align 8, !tbaa !55
  %36 = and i16 %35, 1
  %.not.i = icmp eq i16 %36, 0
  br i1 %.not.i, label %_ZNK6icu_779NFRuleSet7isNamedERKNS_13UnicodeStringE.exit.thread.i, label %_ZNK6icu_7721RuleBasedNumberFormat11findRuleSetERKNS_13UnicodeStringER10UErrorCode.exit

37:                                               ; preds = %28
  %38 = icmp slt i16 %32, 0
  %39 = ashr i16 %32, 5
  %40 = sext i16 %39 to i32
  %41 = getelementptr inbounds nuw i8, ptr %29, i64 20
  %42 = load i32, ptr %41, align 4
  %43 = select i1 %38, i32 %42, i32 %40
  %44 = load i16, ptr %.phi.trans.insert.i, align 8, !tbaa !55
  %45 = icmp slt i16 %44, 0
  %46 = ashr i16 %44, 5
  %47 = sext i16 %46 to i32
  %48 = load i32, ptr %13, align 4
  %49 = select i1 %45, i32 %48, i32 %47
  %50 = and i16 %44, 1
  %.not9.i.i.i = icmp eq i16 %50, 0
  %51 = icmp eq i32 %43, %49
  %or.cond.i.i.i = and i1 %.not9.i.i.i, %51
  br i1 %or.cond.i.i.i, label %_ZNK6icu_779NFRuleSet7isNamedERKNS_13UnicodeStringE.exit.i, label %_ZNK6icu_779NFRuleSet7isNamedERKNS_13UnicodeStringE.exit.thread.i

_ZNK6icu_779NFRuleSet7isNamedERKNS_13UnicodeStringE.exit.i: ; preds = %37
  %52 = and i16 %44, 2
  %.not.i.i.i.i.i = icmp eq i16 %52, 0
  %53 = load ptr, ptr %27, align 8
  %54 = select i1 %.not.i.i.i.i.i, ptr %53, ptr %26
  %55 = tail call noundef signext i8 @_ZNK6icu_7713UnicodeString8doEqualsEPKDsi(ptr noundef nonnull align 8 dereferenceable(64) %30, ptr noundef %54, i32 noundef %43)
  %.not33.i = icmp eq i8 %55, 0
  br i1 %.not33.i, label %_ZNK6icu_779NFRuleSet7isNamedERKNS_13UnicodeStringE.exit.thread.i, label %_ZNK6icu_7721RuleBasedNumberFormat11findRuleSetERKNS_13UnicodeStringER10UErrorCode.exit

_ZNK6icu_779NFRuleSet7isNamedERKNS_13UnicodeStringE.exit.thread.i: ; preds = %_ZNK6icu_779NFRuleSet7isNamedERKNS_13UnicodeStringE.exit.i, %37, %34
  %56 = getelementptr inbounds nuw i8, ptr %.01330.i, i64 8
  %57 = load ptr, ptr %56, align 8, !tbaa !96
  %.not17.i = icmp eq ptr %57, null
  br i1 %.not17.i, label %._crit_edge.i, label %28, !llvm.loop !103

._crit_edge.i:                                    ; preds = %_ZNK6icu_779NFRuleSet7isNamedERKNS_13UnicodeStringE.exit.thread.i, %.preheader.i
  store i32 1, ptr %5, align 4, !tbaa !19
  br label %_ZNK6icu_7721RuleBasedNumberFormat11findRuleSetERKNS_13UnicodeStringER10UErrorCode.exit.thread

_ZNK6icu_7721RuleBasedNumberFormat11findRuleSetERKNS_13UnicodeStringER10UErrorCode.exit: ; preds = %_ZNK6icu_779NFRuleSet7isNamedERKNS_13UnicodeStringE.exit.i, %34
  tail call void @_ZNK6icu_7721RuleBasedNumberFormat6formatEdRNS_9NFRuleSetERNS_13UnicodeStringER10UErrorCode(ptr noundef nonnull align 8 dereferenceable(456) %0, double noundef %1, ptr noundef nonnull align 8 dereferenceable(163) %29, ptr noundef nonnull align 8 dereferenceable(64) %3, ptr noundef nonnull align 4 dereferenceable(4) %5)
  br label %_ZNK6icu_7721RuleBasedNumberFormat11findRuleSetERKNS_13UnicodeStringER10UErrorCode.exit.thread

_ZNK6icu_7721RuleBasedNumberFormat11findRuleSetERKNS_13UnicodeStringER10UErrorCode.exit.thread: ; preds = %20, %._crit_edge.i, %_ZNK6icu_7721RuleBasedNumberFormat11findRuleSetERKNS_13UnicodeStringER10UErrorCode.exit, %19, %6
  ret ptr %3
}